target datalayout = "e-m:e-p270:32:32-p271:32:32-p272:64:64-i64:64-i128:128-f80:128-n8:16:32:64-S128"
target triple = "x86_64-unknown-linux-gnu"

%struct.target_sockaddr = type { i16, [14 x i8] }
%struct.sockaddr = type { i16, [14 x i8] }

; Function Attrs: nounwind sspstrong uwtable
define internal void @unlock_user(ptr noundef %host_ptr, i64 noundef %guest_addr, i64 noundef %len) #0 {
entry:
  %host_ptr.addr = alloca ptr, align 8
  %guest_addr.addr = alloca i64, align 8
  %len.addr = alloca i64, align 8
  store ptr %host_ptr, ptr %host_ptr.addr, align 8
  store i64 %guest_addr, ptr %guest_addr.addr, align 8
  store i64 %len, ptr %len.addr, align 8
  ret void
}

; Function Attrs: nounwind sspstrong uwtable
define internal zeroext i16 @tswap16(i16 noundef zeroext %s) #0 {
entry:
  %s.addr = alloca i16, align 2
  store i16 %s, ptr %s.addr, align 2
  %0 = load i16, ptr %s.addr, align 2
  ret i16 %0
}

; Function Attrs: nounwind sspstrong uwtable
define internal i64 @packet_target_to_host_sockaddr(ptr noundef %host_addr, i64 noundef %target_addr, i32 noundef %len) #0 {
entry:
  %retval = alloca i64, align 8
  %host_addr.addr = alloca ptr, align 8
  %target_addr.addr = alloca i64, align 8
  %len.addr = alloca i32, align 4
  %addr = alloca ptr, align 8
  %target_saddr = alloca ptr, align 8
  store ptr %host_addr, ptr %host_addr.addr, align 8
  store i64 %target_addr, ptr %target_addr.addr, align 8
  store i32 %len, ptr %len.addr, align 4
  %0 = load ptr, ptr %host_addr.addr, align 8
  store ptr %0, ptr %addr, align 8
  %1 = load i64, ptr %target_addr.addr, align 8
  %2 = load i32, ptr %len.addr, align 4
  %conv = zext i32 %2 to i64
  %call = call ptr @lock_user(i32 noundef 1, i64 noundef %1, i64 noundef %conv, i1 noundef zeroext true)
  store ptr %call, ptr %target_saddr, align 8
  %3 = load ptr, ptr %target_saddr, align 8
  %tobool = icmp ne ptr %3, null
  br i1 %tobool, label %if.end, label %if.then

if.then:                                          ; preds = %entry
  store i64 -14, ptr %retval, align 8
  br label %return

if.end:                                           ; preds = %entry
  %4 = load ptr, ptr %addr, align 8
  %5 = load ptr, ptr %target_saddr, align 8
  %6 = load i32, ptr %len.addr, align 4
  %conv1 = zext i32 %6 to i64
  call void @llvm.memcpy.p0.p0.i64(ptr align 2 %4, ptr align 2 %5, i64 %conv1, i1 false)
  %7 = load ptr, ptr %target_saddr, align 8
  %sa_family = getelementptr inbounds %struct.target_sockaddr, ptr %7, i32 0, i32 0
  %8 = load i16, ptr %sa_family, align 2
  %call2 = call zeroext i16 @tswap16(i16 noundef zeroext %8)
  %9 = load ptr, ptr %addr, align 8
  %sa_family3 = getelementptr inbounds %struct.sockaddr, ptr %9, i32 0, i32 0
  store i16 %call2, ptr %sa_family3, align 2
  %10 = load ptr, ptr %target_saddr, align 8
  %11 = load i64, ptr %target_addr.addr, align 8
  call void @unlock_user(ptr noundef %10, i64 noundef %11, i64 noundef 0)
  store i64 0, ptr %retval, align 8
  br label %return

return:                                           ; preds = %if.end, %if.then
  %12 = load i64, ptr %retval, align 8
  ret i64 %12
}