; Function Attrs: nounwind sspstrong uwtable
define internal range(i64 -14, 1) i64 @packet_target_to_host_sockaddr(ptr noundef writeonly captures(none) %host_addr, i64 noundef %target_addr, i32 noundef %len) #0 {
entry:
  %conv = zext i32 %len to i64
  %call = tail call ptr @lock_user(i32 noundef 1, i64 noundef %target_addr, i64 noundef %conv, i1 noundef zeroext true) #5
  %tobool.not = icmp eq ptr %call, null
  br i1 %tobool.not, label %return, label %if.end

if.end:                                           ; preds = %entry
  tail call void @llvm.memcpy.p0.p0.i64(ptr align 2 %host_addr, ptr nonnull align 2 %call, i64 %conv, i1 false)
  %0 = load i16, ptr %call, align 2
  store i16 %0, ptr %host_addr, align 2
  br label %return

return:                                           ; preds = %entry, %if.end
  %retval.0 = phi i64 [ 0, %if.end ], [ -14, %entry ]
  ret i64 %retval.0
}